ccopy_reg
_reconstructor
p0
(cBio.SeqRecord
SeqRecord
p1
c__builtin__
object
p2
Ntp3
Rp4
(dp5
S'dbxrefs'
p6
(lp7
sS'description'
p8
S'Latrodectus hesperus egg case silk protein-1 (ECP-1) mRNA, complete cds.'
p9
sS'annotations'
p10
(dp11
S'sequence_version'
p12
I1
sS'source'
p13
S'Latrodectus hesperus (western black widow)'
p14
sS'taxonomy'
p15
(lp16
S'Eukaryota'
p17
aS'Metazoa'
p18
aS'Ecdysozoa'
p19
aS'Arthropoda'
p20
aS'Chelicerata'
p21
aS'Arachnida'
p22
aS'Araneae'
p23
aS'Araneomorphae'
p24
aS'Entelegynae'
p25
aS'Araneoidea'
p26
aS'Theridiidae'
p27
aS'Latrodectus'
p28
asS'keywords'
p29
(lp30
S''
p31
asS'references'
p32
(lp33
g0
(cBio.SeqFeature
Reference
p34
g2
Ntp35
Rp36
(dp37
S'comment'
p38
g31
sS'title'
p39
S'Egg case protein-1. A new class of silk proteins with fibroin-like properties from the spider Latrodectus hesperus'
p40
sS'consrtm'
p41
g31
sS'journal'
p42
S'J. Biol. Chem. 280 (22), 21220-21230 (2005)'
p43
sS'location'
p44
(lp45
g0
(cBio.SeqFeature
FeatureLocation
p46
g2
Ntp47
Rp48
(dp49
S'ref'
p50
NsS'_end'
p51
g0
(cBio.SeqFeature
ExactPosition
p52
c__builtin__
int
p53
I2957
tp54
Rp55
sS'_start'
p56
g0
(g52
g53
I0
tp57
Rp58
sS'_strand'
p59
NsS'ref_db'
p60
NsbasS'pubmed_id'
p61
S'15797873'
p62
sS'authors'
p63
S'Hu,X., Kohler,K., Falick,A.M., Moore,A.M., Jones,P.R., Sparkman,O.D. and Vierra,C.'
p64
sS'medline_id'
p65
g31
sbag0
(g34
g2
Ntp66
Rp67
(dp68
g38
g31
sg39
S'Direct Submission'
p69
sg41
g31
sg42
S'Submitted (30-MAR-2005) Biology, University of the Pacific, 3601 Pacific Avenue, Stockton, CA 95211, USA'
p70
sg44
(lp71
g0
(g46
g2
Ntp72
Rp73
(dp74
g50
Nsg51
g0
(g52
g53
I2957
tp75
Rp76
sg56
g0
(g52
g53
I0
tp77
Rp78
sg59
Nsg60
Nsbasg61
g31
sg63
S'Hu,X., Kohler,K., Falick,A., Moore,A.M.F., Jones,P.R., Sparkman,O.D. and Vierra,C.A.'
p79
sg65
g31
sbasS'accessions'
p80
(lp81
S'AY994149'
p82
asS'data_file_division'
p83
S'INV'
p84
sS'date'
p85
S'01-JUN-2005'
p86
sS'organism'
p87
S'Latrodectus hesperus'
p88
sS'gi'
p89
S'62638183'
p90
ssS'features'
p91
(lp92
g0
(cBio.SeqFeature
SeqFeature
p93
g2
Ntp94
Rp95
(dp96
S'qualifiers'
p97
(dp98
S'db_xref'
p99
(lp100
S'taxon:256737'
p101
asS'mol_type'
p102
(lp103
S'mRNA'
p104
asS'organism'
p105
(lp106
S'Latrodectus hesperus'
p107
assS'type'
p108
S'source'
p109
sg44
g0
(g46
g2
Ntp110
Rp111
(dp112
g50
Nsg51
g0
(g52
g53
I2957
tp113
Rp114
sg56
g0
(g52
g53
I0
tp115
Rp116
sg59
I1
sg60
NsbsS'_sub_features'
p117
(lp118
sS'id'
p119
S'<unknown id>'
p120
sbag0
(g93
g2
Ntp121
Rp122
(dp123
g97
(dp124
S'gene'
p125
(lp126
S'ECP-1'
p127
assg108
S'gene'
p128
sg44
g0
(g46
g2
Ntp129
Rp130
(dp131
g50
Nsg51
g0
(g52
g53
I2957
tp132
Rp133
sg56
g0
(g52
g53
I0
tp134
Rp135
sg59
I1
sg60
Nsbsg117
(lp136
sg119
g120
sbag0
(g93
g2
Ntp137
Rp138
(dp139
g97
(dp140
S'product'
p141
(lp142
S'egg case silk protein-1'
p143
asS'codon_start'
p144
(lp145
S'1'
p146
asS'note'
p147
(lp148
S'egg case fibroin-like; ECP-1'
p149
asS'db_xref'
p150
(lp151
S'GI:62638184'
p152
asS'translation'
p153
(lp154
S'MFTFLGLISLLGVQIGIALGQGDVCFNKCLSRISGGCQSLIYTQVNPCAFQCTCDGVVTYHVEETFTKCGSRKLCYQGECLTEVPNRCERRYGYGYIGLLNPYNPCVFYCHNADVPCESFEENFVDGTTCYSSNSVIGQCLLGRCAEGGLTFSSGYIQGQRLPLEGQRFSIPRESSVVSAAGSAATAGQGGGNAANAASSAAASSSAAYNREGNRAGSSAAASAAGASSRQETVSSASTTTAAAARSFGGQRGINAENAAAAASGARAGQTGASSANVEATANAAARAGQAGGNSASADAAASAAARAGQAGGSSASADATASAAAKRGQYGGASGRTAGVSQSFGTAFSSRGQQGFSESSSQTESSSASQFNSGSRSSGRAVSSGITGNFGSANDAESFAASESESFAGQSAAGSRGAARGSARSQGGEFTSTFSDSESDVYASNYGSASRGSSRGSAASFGGRGFGVTNTESISNSESESFGSSSRAAGFSGAQGSSGLQYGRSGYGSGDGVGTSYQSIESDGFGSSIQGGGVSTSRADSFTANNYGTENNAISSGSSFASTSGGRRSNSVSAANSFASSNDNGRSNSIFNGGGRISSVSASNAGSFTGSREFGSYPRAGVGNNARFINGAGNNWSVSSMSGAGAFSGRRNSVYSGSSAGAAAGAHAASGGRAGAVAGAGAGASARAGAGARAAAGAGAGASAEAGAGARAAAGAGAGTGAGSGAGAAAGAGAAATSNAQAGAAVGSRGRASAGSRARAASFSEANTLAGAGASSNARAASFSGANALAGAGSRAGAEAQAGARAGAGAASEASAAASAEARAGARAGAGAASEASAAASAEANAGARAVAGAGASAGAESNAGAKAVTRGRARAAAGAGATASSSASSLASSLSEAASSSSSSSSSSSSSSFGESLASSAASAASALGA'
p155
asS'gene'
p156
(lp157
S'ECP-1'
p158
asS'protein_id'
p159
(lp160
S'AAX92677.1'
p161
assg108
S'CDS'
p162
sg44
g0
(g46
g2
Ntp163
Rp164
(dp165
g50
Nsg51
g0
(g52
g53
I2816
tp166
Rp167
sg56
g0
(g52
g53
I17
tp168
Rp169
sg59
I1
sg60
Nsbsg117
(lp170
sg119
g120
sbasS'_seq'
p171
g0
(cBio.Seq
Seq
p172
g2
Ntp173
Rp174
(dp175
S'alphabet'
p176
g0
(cBio.Alphabet.IUPAC
IUPACAmbiguousDNA
p177
g2
Ntp178
Rp179
sS'_data'
p180
S'GGCACGAGGGTAAAAGGATGTTTACTTTCTTAGGGTTAATTTCTCTTTTGGGAGTACAGATTGGTATTGCTTTGGGGCAAGGCGATGTTTGTTTCAACAAATGCTTAAGTAGGATCTCTGGGGGATGCCAGTCTCTAATATATACACAGGTAAACCCATGTGCTTTCCAGTGCACCTGCGATGGCGTTGTTACTTATCATGTCGAAGAAACCTTTACAAAATGCGGATCTCGTAAATTATGCTACCAAGGGGAATGCTTGACTGAAGTACCCAATAGATGCGAGAGACGTTACGGATATGGTTACATAGGACTTTTGAATCCTTACAACCCATGCGTGTTTTACTGCCACAACGCAGACGTGCCTTGTGAAAGTTTTGAAGAAAATTTTGTGGACGGTACCACGTGCTACTCTTCTAATAGCGTTATTGGACAATGTCTTTTGGGGCGATGTGCAGAAGGAGGATTAACTTTTAGCAGTGGATACATACAAGGACAAAGACTGCCGTTGGAAGGCCAAAGATTCAGCATACCAAGAGAATCTTCAGTCGTTAGCGCAGCTGGTTCAGCAGCTACTGCTGGTCAAGGAGGAGGAAATGCAGCTAACGCTGCAAGTTCAGCAGCGGCTTCTTCAAGCGCAGCATATAATCGAGAAGGAAATAGGGCTGGAAGCTCGGCAGCTGCTAGTGCCGCAGGAGCAAGTAGTAGACAAGAAACTGTTAGCTCAGCAAGTACAACAACTGCTGCTGCAGCACGTTCATTTGGAGGACAAAGAGGAATTAATGCCGAAAACGCAGCAGCTGCAGCCTCTGGTGCAAGAGCAGGGCAAACTGGAGCAAGTTCAGCAAATGTCGAAGCTACAGCCAACGCTGCTGCAAGAGCAGGGCAAGCAGGAGGAAATTCAGCAAGCGCTGACGCTGCAGCCAGCGCTGCTGCAAGAGCAGGGCAAGCAGGAGGAAGTTCAGCAAGCGCTGATGCTACAGCCAGTGCTGCTGCAAAAAGAGGACAATACGGAGGTGCAAGTGGAAGAACCGCGGGAGTTTCCCAAAGTTTTGGAACTGCATTTTCAAGCAGAGGACAACAAGGATTTTCCGAAAGCTCATCTCAAACGGAATCCAGTAGTGCCTCCCAATTCAACTCAGGTAGCAGATCATCAGGAAGAGCCGTTTCCAGCGGGATCACAGGAAATTTTGGATCGGCAAATGATGCCGAATCTTTTGCAGCAAGTGAATCAGAATCTTTTGCAGGACAAAGTGCTGCAGGAAGTCGGGGTGCAGCAAGAGGAAGTGCAAGAAGTCAAGGAGGAGAGTTCACAAGCACTTTTTCCGACAGTGAGTCCGATGTGTACGCATCTAACTACGGTTCAGCCAGTAGAGGATCTTCAAGAGGAAGCGCGGCAAGTTTTGGAGGAAGAGGATTCGGTGTTACAAATACAGAATCTATTTCAAATAGTGAATCAGAATCTTTCGGTTCCTCTTCAAGAGCTGCAGGATTCTCAGGAGCTCAAGGTTCCTCTGGATTACAATACGGAAGATCAGGTTACGGATCAGGAGATGGAGTTGGAACAAGTTACCAATCCATTGAATCAGATGGTTTCGGTTCCAGTATTCAAGGTGGAGGTGTTTCAACTTCCAGAGCCGACAGTTTCACAGCCAACAATTATGGAACAGAAAACAACGCAATTTCTTCAGGGAGCAGTTTCGCGTCAACTAGTGGAGGAAGAAGAAGCAACTCAGTCTCCGCTGCAAACAGTTTCGCAAGTAGTAATGACAATGGAAGAAGTAATTCAATATTCAATGGAGGAGGCAGAATCAGCTCAGTCTCTGCCTCAAACGCAGGCAGTTTCACTGGCAGTAGAGAATTCGGTAGTTATCCTAGGGCTGGAGTAGGTAACAATGCCAGATTCATAAATGGTGCTGGTAACAACTGGAGTGTATCCTCAATGTCTGGAGCTGGAGCTTTCAGTGGTAGAAGAAATTCTGTTTATTCTGGAAGTTCAGCTGGAGCAGCAGCTGGAGCTCATGCAGCATCTGGTGGAAGAGCTGGAGCAGTGGCTGGTGCAGGTGCTGGAGCATCAGCTCGAGCTGGTGCAGGAGCTAGAGCAGCGGCTGGTGCAGGTGCTGGAGCATCAGCTGAAGCTGGTGCAGGAGCTAGAGCAGCGGCTGGTGCAGGAGCCGGAACAGGGGCTGGTTCTGGGGCTGGAGCAGCGGCTGGTGCAGGTGCTGCAGCAACGAGTAATGCGCAGGCTGGAGCTGCTGTTGGTTCAAGAGGCAGAGCTTCAGCTGGATCCAGGGCTAGAGCTGCATCTTTTTCAGAAGCTAATACATTAGCTGGAGCTGGTGCAAGTTCTAATGCTAGAGCAGCATCTTTTTCAGGAGCTAATGCATTAGCTGGAGCTGGTTCTAGGGCTGGTGCTGAAGCTCAAGCTGGAGCTAGGGCAGGAGCCGGTGCTGCTTCTGAAGCAAGTGCAGCAGCTAGTGCTGAAGCTCGAGCTGGCGCTAGGGCAGGAGCTGGTGCTGCTTCTGAAGCAAGTGCAGCAGCTAGTGCTGAAGCTAATGCAGGTGCCAGAGCTGTAGCTGGTGCTGGAGCAAGTGCTGGTGCAGAGTCTAATGCAGGTGCTAAAGCTGTAACTAGAGGCAGAGCTAGAGCAGCAGCAGGAGCAGGAGCAACAGCATCATCTAGTGCAAGTTCTCTAGCATCCTCCTTATCAGAAGCAGCTTCTTCATCAAGTTCATCTTCATCTTCTTCCTCTTCATCATCTTTTGGTGAATCACTTGCTTCATCAGCCGCTTCTGCTGCATCCGCTCTTGGTGCTTAAAAATCTTGAATGTGTTTGCTTAAAACATATTTAATAAAAAAATGTTTTAATACTTTTTGTTGAAAGCATTTAACAACACATTGTTAGAATTTTTACTCTCAAAATAAATATTTTATTTCAAGAATGAAAAAAAAAAAAAAA'
p181
sbsS'_per_letter_annotations'
p182
g0
(cBio.SeqRecord
_RestrictedDict
p183
c__builtin__
dict
p184
(dp185
tp186
Rp187
(dp188
S'_length'
p189
I2957
sbsg119
S'AY994149.1'
p190
sS'name'
p191
S'AY994149'
p192
sb.