ccopy_reg
_reconstructor
p0
(cBio.SeqRecord
SeqRecord
p1
c__builtin__
object
p2
Ntp3
Rp4
(dp5
Vid
p6
VAY994149.1
p7
sVdbxrefs
p8
(lp9
sVname
p10
VAY994149
p11
sVannotations
p12
(dp13
Vtaxonomy
p14
(lp15
VEukaryota
p16
aVMetazoa
p17
aVEcdysozoa
p18
aVArthropoda
p19
aVChelicerata
p20
aVArachnida
p21
aVAraneae
p22
aVAraneomorphae
p23
aVEntelegynae
p24
aVAraneoidea
p25
aVTheridiidae
p26
aVLatrodectus
p27
asVaccessions
p28
(lp29
VAY994149
p30
asVsequence_version
p31
L1L
sVdate
p32
V01-JUN-2005
p33
sVdata_file_division
p34
VINV
p35
sVkeywords
p36
(lp37
V
p38
asVsource
p39
VLatrodectus hesperus (western black widow)
p40
sVorganism
p41
VLatrodectus hesperus
p42
sVreferences
p43
(lp44
g0
(cBio.SeqFeature
Reference
p45
g2
Ntp46
Rp47
(dp48
Vlocation
p49
(lp50
g0
(cBio.SeqFeature
FeatureLocation
p51
g2
Ntp52
Rp53
(dp54
Vref
p55
NsVref_db
p56
NsV_end
p57
g0
(cBio.SeqFeature
ExactPosition
p58
c__builtin__
long
p59
L2957L
tp60
Rp61
sV_strand
p62
NsV_start
p63
g0
(g58
g59
L0L
tp64
Rp65
sbasVpubmed_id
p66
V15797873
p67
sVmedline_id
p68
g38
sVconsrtm
p69
g38
sVjournal
p70
VJ. Biol. Chem. 280 (22), 21220-21230 (2005)
p71
sVcomment
p72
g38
sVauthors
p73
VHu,X., Kohler,K., Falick,A.M., Moore,A.M., Jones,P.R., Sparkman,O.D. and Vierra,C.
p74
sVtitle
p75
VEgg case protein-1. A new class of silk proteins with fibroin-like properties from the spider Latrodectus hesperus
p76
sbag0
(g45
g2
Ntp77
Rp78
(dp79
g49
(lp80
g0
(g51
g2
Ntp81
Rp82
(dp83
g55
Nsg56
Nsg57
g0
(g58
g59
L2957L
tp84
Rp85
sg62
Nsg63
g0
(g58
g59
L0L
tp86
Rp87
sbasg66
g38
sg68
g38
sg69
g38
sg70
VSubmitted (30-MAR-2005) Biology, University of the Pacific, 3601 Pacific Avenue, Stockton, CA 95211, USA
p88
sg72
g38
sg73
VHu,X., Kohler,K., Falick,A., Moore,A.M.F., Jones,P.R., Sparkman,O.D. and Vierra,C.A.
p89
sg75
VDirect Submission
p90
sbasVgi
p91
V62638183
p92
ssVdescription
p93
VLatrodectus hesperus egg case silk protein-1 (ECP-1) mRNA, complete cds.
p94
sVfeatures
p95
(lp96
g0
(cBio.SeqFeature
SeqFeature
p97
g2
Ntp98
Rp99
(dp100
g49
g0
(g51
g2
Ntp101
Rp102
(dp103
g55
Nsg56
Nsg57
g0
(g58
g59
L2957L
tp104
Rp105
sg62
L1L
sg63
g0
(g58
g59
L0L
tp106
Rp107
sbsg6
V<unknown id>
p108
sVqualifiers
p109
(dp110
Vorganism
p111
(lp112
VLatrodectus hesperus
p113
asVdb_xref
p114
(lp115
Vtaxon:256737
p116
asVmol_type
p117
(lp118
VmRNA
p119
assVtype
p120
Vsource
p121
sV_sub_features
p122
(lp123
sbag0
(g97
g2
Ntp124
Rp125
(dp126
g49
g0
(g51
g2
Ntp127
Rp128
(dp129
g55
Nsg56
Nsg57
g0
(g58
g59
L2957L
tp130
Rp131
sg62
L1L
sg63
g0
(g58
g59
L0L
tp132
Rp133
sbsg6
g108
sg109
(dp134
Vgene
p135
(lp136
VECP-1
p137
assg120
Vgene
p138
sg122
(lp139
sbag0
(g97
g2
Ntp140
Rp141
(dp142
g49
g0
(g51
g2
Ntp143
Rp144
(dp145
g55
Nsg56
Nsg57
g0
(g58
g59
L2816L
tp146
Rp147
sg62
L1L
sg63
g0
(g58
g59
L17L
tp148
Rp149
sbsg6
g108
sg109
(dp150
Vgene
p151
(lp152
VECP-1
p153
asVdb_xref
p154
(lp155
VGI:62638184
p156
asVnote
p157
(lp158
Vegg case fibroin-like; ECP-1
p159
asVtranslation
p160
(lp161
VMFTFLGLISLLGVQIGIALGQGDVCFNKCLSRISGGCQSLIYTQVNPCAFQCTCDGVVTYHVEETFTKCGSRKLCYQGECLTEVPNRCERRYGYGYIGLLNPYNPCVFYCHNADVPCESFEENFVDGTTCYSSNSVIGQCLLGRCAEGGLTFSSGYIQGQRLPLEGQRFSIPRESSVVSAAGSAATAGQGGGNAANAASSAAASSSAAYNREGNRAGSSAAASAAGASSRQETVSSASTTTAAAARSFGGQRGINAENAAAAASGARAGQTGASSANVEATANAAARAGQAGGNSASADAAASAAARAGQAGGSSASADATASAAAKRGQYGGASGRTAGVSQSFGTAFSSRGQQGFSESSSQTESSSASQFNSGSRSSGRAVSSGITGNFGSANDAESFAASESESFAGQSAAGSRGAARGSARSQGGEFTSTFSDSESDVYASNYGSASRGSSRGSAASFGGRGFGVTNTESISNSESESFGSSSRAAGFSGAQGSSGLQYGRSGYGSGDGVGTSYQSIESDGFGSSIQGGGVSTSRADSFTANNYGTENNAISSGSSFASTSGGRRSNSVSAANSFASSNDNGRSNSIFNGGGRISSVSASNAGSFTGSREFGSYPRAGVGNNARFINGAGNNWSVSSMSGAGAFSGRRNSVYSGSSAGAAAGAHAASGGRAGAVAGAGAGASARAGAGARAAAGAGAGASAEAGAGARAAAGAGAGTGAGSGAGAAAGAGAAATSNAQAGAAVGSRGRASAGSRARAASFSEANTLAGAGASSNARAASFSGANALAGAGSRAGAEAQAGARAGAGAASEASAAASAEARAGARAGAGAASEASAAASAEANAGARAVAGAGASAGAESNAGAKAVTRGRARAAAGAGATASSSASSLASSLSEAASSSSSSSSSSSSSSFGESLASSAASAASALGA
p162
asVproduct
p163
(lp164
Vegg case silk protein-1
p165
asVcodon_start
p166
(lp167
V1
p168
asVprotein_id
p169
(lp170
VAAX92677.1
p171
assg120
VCDS
p172
sg122
(lp173
sbasV_seq
p174
g0
(cBio.Seq
Seq
p175
g2
Ntp176
Rp177
(dp178
Valphabet
p179
g0
(cBio.Alphabet.IUPAC
IUPACAmbiguousDNA
p180
g2
Ntp181
Rp182
sV_data
p183
VGGCACGAGGGTAAAAGGATGTTTACTTTCTTAGGGTTAATTTCTCTTTTGGGAGTACAGATTGGTATTGCTTTGGGGCAAGGCGATGTTTGTTTCAACAAATGCTTAAGTAGGATCTCTGGGGGATGCCAGTCTCTAATATATACACAGGTAAACCCATGTGCTTTCCAGTGCACCTGCGATGGCGTTGTTACTTATCATGTCGAAGAAACCTTTACAAAATGCGGATCTCGTAAATTATGCTACCAAGGGGAATGCTTGACTGAAGTACCCAATAGATGCGAGAGACGTTACGGATATGGTTACATAGGACTTTTGAATCCTTACAACCCATGCGTGTTTTACTGCCACAACGCAGACGTGCCTTGTGAAAGTTTTGAAGAAAATTTTGTGGACGGTACCACGTGCTACTCTTCTAATAGCGTTATTGGACAATGTCTTTTGGGGCGATGTGCAGAAGGAGGATTAACTTTTAGCAGTGGATACATACAAGGACAAAGACTGCCGTTGGAAGGCCAAAGATTCAGCATACCAAGAGAATCTTCAGTCGTTAGCGCAGCTGGTTCAGCAGCTACTGCTGGTCAAGGAGGAGGAAATGCAGCTAACGCTGCAAGTTCAGCAGCGGCTTCTTCAAGCGCAGCATATAATCGAGAAGGAAATAGGGCTGGAAGCTCGGCAGCTGCTAGTGCCGCAGGAGCAAGTAGTAGACAAGAAACTGTTAGCTCAGCAAGTACAACAACTGCTGCTGCAGCACGTTCATTTGGAGGACAAAGAGGAATTAATGCCGAAAACGCAGCAGCTGCAGCCTCTGGTGCAAGAGCAGGGCAAACTGGAGCAAGTTCAGCAAATGTCGAAGCTACAGCCAACGCTGCTGCAAGAGCAGGGCAAGCAGGAGGAAATTCAGCAAGCGCTGACGCTGCAGCCAGCGCTGCTGCAAGAGCAGGGCAAGCAGGAGGAAGTTCAGCAAGCGCTGATGCTACAGCCAGTGCTGCTGCAAAAAGAGGACAATACGGAGGTGCAAGTGGAAGAACCGCGGGAGTTTCCCAAAGTTTTGGAACTGCATTTTCAAGCAGAGGACAACAAGGATTTTCCGAAAGCTCATCTCAAACGGAATCCAGTAGTGCCTCCCAATTCAACTCAGGTAGCAGATCATCAGGAAGAGCCGTTTCCAGCGGGATCACAGGAAATTTTGGATCGGCAAATGATGCCGAATCTTTTGCAGCAAGTGAATCAGAATCTTTTGCAGGACAAAGTGCTGCAGGAAGTCGGGGTGCAGCAAGAGGAAGTGCAAGAAGTCAAGGAGGAGAGTTCACAAGCACTTTTTCCGACAGTGAGTCCGATGTGTACGCATCTAACTACGGTTCAGCCAGTAGAGGATCTTCAAGAGGAAGCGCGGCAAGTTTTGGAGGAAGAGGATTCGGTGTTACAAATACAGAATCTATTTCAAATAGTGAATCAGAATCTTTCGGTTCCTCTTCAAGAGCTGCAGGATTCTCAGGAGCTCAAGGTTCCTCTGGATTACAATACGGAAGATCAGGTTACGGATCAGGAGATGGAGTTGGAACAAGTTACCAATCCATTGAATCAGATGGTTTCGGTTCCAGTATTCAAGGTGGAGGTGTTTCAACTTCCAGAGCCGACAGTTTCACAGCCAACAATTATGGAACAGAAAACAACGCAATTTCTTCAGGGAGCAGTTTCGCGTCAACTAGTGGAGGAAGAAGAAGCAACTCAGTCTCCGCTGCAAACAGTTTCGCAAGTAGTAATGACAATGGAAGAAGTAATTCAATATTCAATGGAGGAGGCAGAATCAGCTCAGTCTCTGCCTCAAACGCAGGCAGTTTCACTGGCAGTAGAGAATTCGGTAGTTATCCTAGGGCTGGAGTAGGTAACAATGCCAGATTCATAAATGGTGCTGGTAACAACTGGAGTGTATCCTCAATGTCTGGAGCTGGAGCTTTCAGTGGTAGAAGAAATTCTGTTTATTCTGGAAGTTCAGCTGGAGCAGCAGCTGGAGCTCATGCAGCATCTGGTGGAAGAGCTGGAGCAGTGGCTGGTGCAGGTGCTGGAGCATCAGCTCGAGCTGGTGCAGGAGCTAGAGCAGCGGCTGGTGCAGGTGCTGGAGCATCAGCTGAAGCTGGTGCAGGAGCTAGAGCAGCGGCTGGTGCAGGAGCCGGAACAGGGGCTGGTTCTGGGGCTGGAGCAGCGGCTGGTGCAGGTGCTGCAGCAACGAGTAATGCGCAGGCTGGAGCTGCTGTTGGTTCAAGAGGCAGAGCTTCAGCTGGATCCAGGGCTAGAGCTGCATCTTTTTCAGAAGCTAATACATTAGCTGGAGCTGGTGCAAGTTCTAATGCTAGAGCAGCATCTTTTTCAGGAGCTAATGCATTAGCTGGAGCTGGTTCTAGGGCTGGTGCTGAAGCTCAAGCTGGAGCTAGGGCAGGAGCCGGTGCTGCTTCTGAAGCAAGTGCAGCAGCTAGTGCTGAAGCTCGAGCTGGCGCTAGGGCAGGAGCTGGTGCTGCTTCTGAAGCAAGTGCAGCAGCTAGTGCTGAAGCTAATGCAGGTGCCAGAGCTGTAGCTGGTGCTGGAGCAAGTGCTGGTGCAGAGTCTAATGCAGGTGCTAAAGCTGTAACTAGAGGCAGAGCTAGAGCAGCAGCAGGAGCAGGAGCAACAGCATCATCTAGTGCAAGTTCTCTAGCATCCTCCTTATCAGAAGCAGCTTCTTCATCAAGTTCATCTTCATCTTCTTCCTCTTCATCATCTTTTGGTGAATCACTTGCTTCATCAGCCGCTTCTGCTGCATCCGCTCTTGGTGCTTAAAAATCTTGAATGTGTTTGCTTAAAACATATTTAATAAAAAAATGTTTTAATACTTTTTGTTGAAAGCATTTAACAACACATTGTTAGAATTTTTACTCTCAAAATAAATATTTTATTTCAAGAATGAAAAAAAAAAAAAAA
p184
sbsV_per_letter_annotations
p185
g0
(cBio.SeqRecord
_RestrictedDict
p186
c__builtin__
dict
p187
(dp188
tp189
Rp190
(dp191
V_length
p192
L2957L
sbsb.